target datalayout = "e-m:e-p270:32:32-p271:32:32-p272:64:64-i64:64-i128:128-f80:128-n8:16:32:64-S128"
target triple = "x86_64-unknown-linux-gnu"

%"class.Imf_3_2::SampleCountChannel" = type { %"class.Imf_3_2::ImageChannel", ptr, ptr, ptr, ptr, i64, i64, i64 }
%"class.Imf_3_2::ImageChannel" = type { ptr, ptr, i32, i32, i8, i32, i32, i64 }
%"struct.Imf_3_2::Slice" = type <{ i32, [4 x i8], ptr, i64, i64, i32, i32, double, i8, i8, [6 x i8] }>

; Function Attrs: mustprogress nounwind uwtable
define linkonce_odr hidden noundef i32 @_ZNK7Imf_3_212ImageChannel9ySamplingEv(ptr noundef nonnull align 8 dereferenceable(48) %this) #5 comdat align 2 {
entry:
  %this.addr = alloca ptr, align 8
  store ptr %this, ptr %this.addr, align 8
  %this1 = load ptr, ptr %this.addr, align 8
  %_ySampling = getelementptr inbounds %"class.Imf_3_2::ImageChannel", ptr %this1, i32 0, i32 3
  %0 = load i32, ptr %_ySampling, align 4
  ret i32 %0
}

; Function Attrs: mustprogress nounwind uwtable
define linkonce_odr hidden noundef i32 @_ZNK7Imf_3_212ImageChannel9xSamplingEv(ptr noundef nonnull align 8 dereferenceable(48) %this) #5 comdat align 2 {
entry:
  %this.addr = alloca ptr, align 8
  store ptr %this, ptr %this.addr, align 8
  %this1 = load ptr, ptr %this.addr, align 8
  %_xSampling = getelementptr inbounds %"class.Imf_3_2::ImageChannel", ptr %this1, i32 0, i32 2
  %0 = load i32, ptr %_xSampling, align 8
  ret i32 %0
}

; Function Attrs: mustprogress nounwind uwtable
define linkonce_odr hidden noundef i32 @_ZNK7Imf_3_212ImageChannel12pixelsPerRowEv(ptr noundef nonnull align 8 dereferenceable(48) %this) #5 comdat align 2 {
entry:
  %this.addr = alloca ptr, align 8
  store ptr %this, ptr %this.addr, align 8
  %this1 = load ptr, ptr %this.addr, align 8
  %_pixelsPerRow = getelementptr inbounds %"class.Imf_3_2::ImageChannel", ptr %this1, i32 0, i32 5
  %0 = load i32, ptr %_pixelsPerRow, align 4
  ret i32 %0
}

; Function Attrs: mustprogress uwtable
define void @_ZNK7Imf_3_218SampleCountChannel5sliceEv(ptr noalias sret(%"struct.Imf_3_2::Slice") align 8 %agg.result, ptr noundef nonnull align 8 dereferenceable(104) %this) #4 align 2 {
entry:
  %this.addr = alloca ptr, align 8
  store ptr %this, ptr %this.addr, align 8
  %this1 = load ptr, ptr %this.addr, align 8
  %_base = getelementptr inbounds %"class.Imf_3_2::SampleCountChannel", ptr %this1, i32 0, i32 2
  %0 = load ptr, ptr %_base, align 8
  %call = call noundef i32 @_ZNK7Imf_3_212ImageChannel12pixelsPerRowEv(ptr noundef nonnull align 8 dereferenceable(48) %this1)
  %conv = sext i32 %call to i64
  %mul = mul i64 %conv, 4
  %call2 = call noundef i32 @_ZNK7Imf_3_212ImageChannel9xSamplingEv(ptr noundef nonnull align 8 dereferenceable(48) %this1)
  %call3 = call noundef i32 @_ZNK7Imf_3_212ImageChannel9ySamplingEv(ptr noundef nonnull align 8 dereferenceable(48) %this1)
  call void @_ZN7Imf_3_25SliceC1ENS_9PixelTypeEPcmmiidbb(ptr noundef nonnull align 8 dereferenceable(50) %agg.result, i32 noundef 0, ptr noundef %0, i64 noundef 4, i64 noundef %mul, i32 noundef %call2, i32 noundef %call3, double noundef 0.000000e+00, i1 noundef zeroext false, i1 noundef zeroext false)
  ret void
}