; Function Attrs: mustprogress uwtable
define void @_ZNK7Imf_3_218SampleCountChannel5sliceEv(ptr noalias nonnull sret(%"struct.Imf_3_2::Slice") align 8 %agg.result, ptr nocapture noundef nonnull readonly align 8 dereferenceable(104) %this) local_unnamed_addr #3 align 2 {
entry:
  %_base = getelementptr inbounds i8, ptr %this, i64 56
  %0 = load ptr, ptr %_base, align 8
  %_pixelsPerRow.i = getelementptr inbounds i8, ptr %this, i64 28
  %1 = load i32, ptr %_pixelsPerRow.i, align 4
  %conv = sext i32 %1 to i64
  %mul = shl nsw i64 %conv, 2
  %_xSampling.i = getelementptr inbounds i8, ptr %this, i64 16
  %2 = load i32, ptr %_xSampling.i, align 8
  %_ySampling.i = getelementptr inbounds i8, ptr %this, i64 20
  %3 = load i32, ptr %_ySampling.i, align 4
  tail call void @_ZN7Imf_3_25SliceC1ENS_9PixelTypeEPcmmiidbb(ptr noundef nonnull align 8 dereferenceable(50) %agg.result, i32 noundef 0, ptr noundef %0, i64 noundef 4, i64 noundef %mul, i32 noundef %2, i32 noundef %3, double noundef 0.000000e+00, i1 noundef zeroext false, i1 noundef zeroext false)
  ret void
}